; ModuleID = '15/1696.c'
source_filename = "15/1696.c"
target datalayout = "e-m:e-p270:32:32-p271:32:32-p272:64:64-i64:64-f80:128-n8:16:32:64-S128"
target triple = "x86_64-pc-linux-gnu"

@.str = private unnamed_addr constant [3 x i8] c"%d\00", align 1

; Function Attrs: noinline nounwind uwtable
define dso_local i32 @main() #0 {
  %1 = alloca i32, align 4
  %2 = alloca i32, align 4
  %3 = alloca i32, align 4
  %4 = alloca i32, align 4
  %5 = alloca i32, align 4
  %6 = alloca i32, align 4
  %7 = alloca i32, align 4
  %8 = alloca i32, align 4
  %9 = alloca i32, align 4
  %10 = alloca [100 x [100 x i32]], align 16
  store i32 0, i32* %1, align 4
  store i32 1, i32* %9, align 4
  %11 = call i32 (i8*, ...) @__isoc99_scanf(i8* getelementptr inbounds ([3 x i8], [3 x i8]* @.str, i64 0, i64 0), i32* %2)
  store i32 0, i32* %3, align 4
  br label %12

12:                                               ; preds = %45, %0
  %13 = load i32, i32* %3, align 4
  %14 = load i32, i32* %2, align 4
  %15 = icmp slt i32 %13, %14
  br i1 %15, label %16, label %48

16:                                               ; preds = %12
  store i32 0, i32* %4, align 4
  br label %17

17:                                               ; preds = %41, %16
  %18 = load i32, i32* %4, align 4
  %19 = load i32, i32* %2, align 4
  %20 = icmp slt i32 %18, %19
  br i1 %20, label %21, label %44

21:                                               ; preds = %17
  %22 = load i32, i32* %3, align 4
  %23 = sext i32 %22 to i64
  %24 = getelementptr inbounds [100 x [100 x i32]], [100 x [100 x i32]]* %10, i64 0, i64 %23
  %25 = load i32, i32* %4, align 4
  %26 = sext i32 %25 to i64
  %27 = getelementptr inbounds [100 x i32], [100 x i32]* %24, i64 0, i64 %26
  %28 = call i32 (i8*, ...) @__isoc99_scanf(i8* getelementptr inbounds ([3 x i8], [3 x i8]* @.str, i64 0, i64 0), i32* %27)
  %29 = load i32, i32* %3, align 4
  %30 = sext i32 %29 to i64
  %31 = getelementptr inbounds [100 x [100 x i32]], [100 x [100 x i32]]* %10, i64 0, i64 %30
  %32 = load i32, i32* %4, align 4
  %33 = sext i32 %32 to i64
  %34 = getelementptr inbounds [100 x i32], [100 x i32]* %31, i64 0, i64 %33
  %35 = load i32, i32* %34, align 4
  %36 = icmp eq i32 %35, 0
  br i1 %36, label %37, label %40

37:                                               ; preds = %21
  %38 = load i32, i32* %3, align 4
  store i32 %38, i32* %8, align 4
  %39 = load i32, i32* %4, align 4
  store i32 %39, i32* %7, align 4
  br label %40

40:                                               ; preds = %37, %21
  br label %41

41:                                               ; preds = %40
  %42 = load i32, i32* %4, align 4
  %43 = add nsw i32 %42, 1
  store i32 %43, i32* %4, align 4
  br label %17

44:                                               ; preds = %17
  br label %45

45:                                               ; preds = %44
  %46 = load i32, i32* %3, align 4
  %47 = add nsw i32 %46, 1
  store i32 %47, i32* %3, align 4
  br label %12

48:                                               ; preds = %12
  store i32 0, i32* %3, align 4
  br label %49

49:                                               ; preds = %74, %48
  %50 = load i32, i32* %9, align 4
  %51 = icmp ne i32 %50, 0
  br i1 %51, label %52, label %77

52:                                               ; preds = %49
  store i32 0, i32* %4, align 4
  br label %53

53:                                               ; preds = %70, %52
  %54 = load i32, i32* %4, align 4
  %55 = load i32, i32* %2, align 4
  %56 = icmp slt i32 %54, %55
  br i1 %56, label %57, label %73

57:                                               ; preds = %53
  %58 = load i32, i32* %3, align 4
  %59 = sext i32 %58 to i64
  %60 = getelementptr inbounds [100 x [100 x i32]], [100 x [100 x i32]]* %10, i64 0, i64 %59
  %61 = load i32, i32* %4, align 4
  %62 = sext i32 %61 to i64
  %63 = getelementptr inbounds [100 x i32], [100 x i32]* %60, i64 0, i64 %62
  %64 = load i32, i32* %63, align 4
  %65 = icmp eq i32 %64, 0
  br i1 %65, label %66, label %69

66:                                               ; preds = %57
  %67 = load i32, i32* %4, align 4
  store i32 %67, i32* %5, align 4
  %68 = load i32, i32* %3, align 4
  store i32 %68, i32* %6, align 4
  store i32 0, i32* %9, align 4
  br label %73

69:                                               ; preds = %57
  br label %70

70:                                               ; preds = %69
  %71 = load i32, i32* %4, align 4
  %72 = add nsw i32 %71, 1
  store i32 %72, i32* %4, align 4
  br label %53

73:                                               ; preds = %66, %53
  br label %74

74:                                               ; preds = %73
  %75 = load i32, i32* %3, align 4
  %76 = add nsw i32 %75, 1
  store i32 %76, i32* %3, align 4
  br label %49

77:                                               ; preds = %49
  %78 = load i32, i32* %7, align 4
  %79 = load i32, i32* %5, align 4
  %80 = sub nsw i32 %78, %79
  %81 = add nsw i32 %80, 1
  %82 = load i32, i32* %8, align 4
  %83 = load i32, i32* %6, align 4
  %84 = sub nsw i32 %82, %83
  %85 = add nsw i32 %84, 1
  %86 = mul nsw i32 %81, %85
  %87 = load i32, i32* %7, align 4
  %88 = load i32, i32* %5, align 4
  %89 = sub nsw i32 %87, %88
  %90 = add nsw i32 %89, 1
  %91 = mul nsw i32 2, %90
  %92 = load i32, i32* %8, align 4
  %93 = load i32, i32* %6, align 4
  %94 = sub nsw i32 %92, %93
  %95 = add nsw i32 %94, 1
  %96 = mul nsw i32 2, %95
  %97 = add nsw i32 %91, %96
  %98 = sub nsw i32 %97, 4
  %99 = sub nsw i32 %86, %98
  store i32 %99, i32* %2, align 4
  %100 = load i32, i32* %2, align 4
  %101 = call i32 (i8*, ...) @printf(i8* getelementptr inbounds ([3 x i8], [3 x i8]* @.str, i64 0, i64 0), i32 %100)
  ret i32 0
}

declare dso_local i32 @__isoc99_scanf(i8*, ...) #1

declare dso_local i32 @printf(i8*, ...) #1


!llvm.module.flags = !{!0}
!llvm.ident = !{!1}

!0 = !{i32 1, !"wchar_size", i32 4}
!1 = !{!"clang version 10.0.0-4ubuntu1 "}
